; Function Attrs: mustprogress uwtable
define hidden void @_Z5applyR11ast_managerP15proof_converterR7obj_refI3appS_E(ptr noundef nonnull align 8 dereferenceable(976) %0, ptr noundef %1, ptr noundef nonnull align 8 captures(none) dereferenceable(16) %2) local_unnamed_addr #3 personality ptr @__gxx_personality_v0 {
  %4 = alloca ptr, align 8
  %5 = alloca %class.obj_ref, align 8
  %.not = icmp eq ptr %1, null
  br i1 %.not, label %24, label %6

6:                                                ; preds = %3
  call void @llvm.lifetime.start.p0(i64 8, ptr nonnull %4) #12
  %7 = load ptr, ptr %2, align 8, !tbaa !14
  store ptr %7, ptr %4, align 8, !tbaa !21
  call void @llvm.lifetime.start.p0(i64 16, ptr nonnull %5) #12
  %8 = load ptr, ptr %1, align 8, !tbaa !12
  %9 = getelementptr inbounds nuw i8, ptr %8, i64 32
  %10 = load ptr, ptr %9, align 8
  call void %10(ptr dead_on_unwind nonnull writable sret(%class.obj_ref) align 8 %5, ptr noundef nonnull align 8 dereferenceable(12) %1, ptr noundef nonnull align 8 dereferenceable(976) %0, i32 noundef 1, ptr noundef nonnull %4)
  %11 = load ptr, ptr %2, align 8, !tbaa !21
  %12 = load ptr, ptr %5, align 8, !tbaa !21
  store ptr %12, ptr %2, align 8, !tbaa !21
  store ptr %11, ptr %5, align 8, !tbaa !21
  %.not.i.i.i = icmp eq ptr %11, null
  br i1 %.not.i.i.i, label %_ZN7obj_refI3app11ast_managerED2Ev.exit, label %13

13:                                               ; preds = %6
  %14 = getelementptr inbounds nuw i8, ptr %5, i64 8
  %15 = load ptr, ptr %14, align 8, !tbaa !22
  %16 = getelementptr inbounds nuw i8, ptr %11, i64 8
  %17 = load i32, ptr %16, align 4, !tbaa !19
  %18 = add i32 %17, -1
  store i32 %18, ptr %16, align 4, !tbaa !19
  %19 = icmp eq i32 %18, 0
  br i1 %19, label %20, label %_ZN7obj_refI3app11ast_managerED2Ev.exit

20:                                               ; preds = %13
  invoke void @_ZN11ast_manager11delete_nodeEP3ast(ptr noundef nonnull align 8 dereferenceable(976) %15, ptr noundef nonnull %11)
          to label %_ZN7obj_refI3app11ast_managerED2Ev.exit unwind label %21

21:                                               ; preds = %20
  %22 = landingpad { ptr, i32 }
          catch ptr null
  %23 = extractvalue { ptr, i32 } %22, 0
  call void @__clang_call_terminate(ptr %23) #13
  unreachable

_ZN7obj_refI3app11ast_managerED2Ev.exit:          ; preds = %20, %13, %6
  call void @llvm.lifetime.end.p0(i64 16, ptr nonnull %5) #12
  call void @llvm.lifetime.end.p0(i64 8, ptr nonnull %4) #12
  br label %24

24:                                               ; preds = %_ZN7obj_refI3app11ast_managerED2Ev.exit, %3
  ret void
}